target datalayout = "e-m:e-p270:32:32-p271:32:32-p272:64:64-i64:64-i128:128-f80:128-n8:16:32:64-S128"
target triple = "x86_64-pc-linux-gnu"

%"class.Ipopt::DenseVector" = type { %"class.Ipopt::Vector.base", ptr, ptr, ptr, i8, i8, double }
%"class.Ipopt::Vector.base" = type <{ %"class.Ipopt::TaggedObject", %"class.Ipopt::SmartPtr", %"class.Ipopt::CachedResults", i32, [4 x i8], double, i32, [4 x i8], double, i32, [4 x i8], double, i32, [4 x i8], double, i32, [4 x i8], double, i32, [4 x i8], double, i32, [4 x i8], double, i32, i8 }>
%"class.Ipopt::TaggedObject" = type { %"class.Ipopt::ReferencedObject.base", %"class.Ipopt::Subject", i32, i32 }
%"class.Ipopt::ReferencedObject.base" = type <{ ptr, i32 }>
%"class.Ipopt::Subject" = type { ptr, %"class.std::vector" }
%"class.std::vector" = type { %"struct.std::_Vector_base" }
%"struct.std::_Vector_base" = type { %"struct.std::_Vector_base<Ipopt::Observer *, std::allocator<Ipopt::Observer *>>::_Vector_impl" }
%"struct.std::_Vector_base<Ipopt::Observer *, std::allocator<Ipopt::Observer *>>::_Vector_impl" = type { %"struct.std::_Vector_base<Ipopt::Observer *, std::allocator<Ipopt::Observer *>>::_Vector_impl_data" }
%"struct.std::_Vector_base<Ipopt::Observer *, std::allocator<Ipopt::Observer *>>::_Vector_impl_data" = type { ptr, ptr, ptr }
%"class.Ipopt::SmartPtr" = type { ptr }
%"class.Ipopt::CachedResults" = type { ptr, i32, ptr }
%"class.Ipopt::Vector" = type <{ %"class.Ipopt::TaggedObject", %"class.Ipopt::SmartPtr", %"class.Ipopt::CachedResults", i32, [4 x i8], double, i32, [4 x i8], double, i32, [4 x i8], double, i32, [4 x i8], double, i32, [4 x i8], double, i32, [4 x i8], double, i32, [4 x i8], double, i32, i8, [3 x i8] }>
%"class.Ipopt::VectorSpace" = type { %"class.Ipopt::ReferencedObject.base", i32 }

; Function Attrs: mustprogress uwtable
define linkonce_odr noundef ptr @_ZNK5Ipopt16DenseVectorSpace23AllocateInternalStorageEv(ptr noundef nonnull align 8 dereferenceable(160) %0) #0 comdat align 2 {
  %2 = alloca ptr, align 8
  %3 = alloca ptr, align 8
  store ptr %0, ptr %3, align 8
  %4 = load ptr, ptr %3, align 8
  %5 = call noundef i32 @_ZNK5Ipopt11VectorSpace3DimEv(ptr noundef nonnull align 8 dereferenceable(16) %4)
  %6 = icmp sgt i32 %5, 0
  br i1 %6, label %7, label %15

7:                                                ; preds = %1
  %8 = call noundef i32 @_ZNK5Ipopt11VectorSpace3DimEv(ptr noundef nonnull align 8 dereferenceable(16) %4)
  %9 = sext i32 %8 to i64
  %10 = call { i64, i1 } @llvm.umul.with.overflow.i64(i64 %9, i64 8)
  %11 = extractvalue { i64, i1 } %10, 1
  %12 = extractvalue { i64, i1 } %10, 0
  %13 = select i1 %11, i64 -1, i64 %12
  %14 = call noalias noundef nonnull ptr @_Znam(i64 noundef %13) #14
  store ptr %14, ptr %2, align 8
  br label %16

15:                                               ; preds = %1
  store ptr null, ptr %2, align 8
  br label %16

16:                                               ; preds = %15, %7
  %17 = load ptr, ptr %2, align 8
  ret ptr %17
}

; Function Attrs: mustprogress nounwind uwtable
define linkonce_odr noundef i32 @_ZNK5Ipopt11VectorSpace3DimEv(ptr noundef nonnull align 8 dereferenceable(16) %0) #1 comdat align 2 {
  %2 = alloca ptr, align 8
  store ptr %0, ptr %2, align 8
  %3 = load ptr, ptr %2, align 8
  %4 = getelementptr inbounds %"class.Ipopt::VectorSpace", ptr %3, i32 0, i32 1
  %5 = load i32, ptr %4, align 4
  ret i32 %5
}

; Function Attrs: mustprogress nounwind uwtable
define linkonce_odr noundef ptr @_ZNK5Ipopt8SmartPtrIKNS_11VectorSpaceEEptEv(ptr noundef nonnull align 8 dereferenceable(8) %0) #1 comdat align 2 {
  %2 = alloca ptr, align 8
  store ptr %0, ptr %2, align 8
  %3 = load ptr, ptr %2, align 8
  %4 = getelementptr inbounds %"class.Ipopt::SmartPtr", ptr %3, i32 0, i32 0
  %5 = load ptr, ptr %4, align 8
  ret ptr %5
}

; Function Attrs: mustprogress uwtable
define linkonce_odr noundef ptr @_ZN5Ipopt11DenseVector16values_allocatedEv(ptr noundef nonnull align 8 dereferenceable(248) %0) #0 comdat align 2 {
  %2 = alloca ptr, align 8
  store ptr %0, ptr %2, align 8
  %3 = load ptr, ptr %2, align 8
  %4 = getelementptr inbounds %"class.Ipopt::DenseVector", ptr %3, i32 0, i32 2
  %5 = load ptr, ptr %4, align 8
  %6 = icmp eq ptr %5, null
  br i1 %6, label %7, label %12

7:                                                ; preds = %1
  %8 = getelementptr inbounds %"class.Ipopt::DenseVector", ptr %3, i32 0, i32 1
  %9 = load ptr, ptr %8, align 8
  %10 = call noundef ptr @_ZNK5Ipopt16DenseVectorSpace23AllocateInternalStorageEv(ptr noundef nonnull align 8 dereferenceable(160) %9)
  %11 = getelementptr inbounds %"class.Ipopt::DenseVector", ptr %3, i32 0, i32 2
  store ptr %10, ptr %11, align 8
  br label %12

12:                                               ; preds = %7, %1
  %13 = getelementptr inbounds %"class.Ipopt::DenseVector", ptr %3, i32 0, i32 2
  %14 = load ptr, ptr %13, align 8
  ret ptr %14
}

; Function Attrs: mustprogress uwtable
define linkonce_odr noundef i32 @_ZNK5Ipopt6Vector3DimEv(ptr noundef nonnull align 8 dereferenceable(205) %0) #0 comdat align 2 {
  %2 = alloca ptr, align 8
  store ptr %0, ptr %2, align 8
  %3 = load ptr, ptr %2, align 8
  %4 = getelementptr inbounds %"class.Ipopt::Vector", ptr %3, i32 0, i32 1
  %5 = call noundef ptr @_ZNK5Ipopt8SmartPtrIKNS_11VectorSpaceEEptEv(ptr noundef nonnull align 8 dereferenceable(8) %4)
  %6 = call noundef i32 @_ZNK5Ipopt11VectorSpace3DimEv(ptr noundef nonnull align 8 dereferenceable(16) %5)
  ret i32 %6
}

; Function Attrs: mustprogress uwtable
define void @_ZN5Ipopt11DenseVector21ElementWiseSelectImplERKNS_6VectorE(ptr noundef nonnull align 8 dereferenceable(248) %0, ptr noundef nonnull align 8 dereferenceable(205) %1) unnamed_addr #0 align 2 {
  %3 = alloca ptr, align 8
  %4 = alloca ptr, align 8
  %5 = alloca ptr, align 8
  %6 = alloca ptr, align 8
  %7 = alloca ptr, align 8
  %8 = alloca i32, align 4
  %9 = alloca i32, align 4
  %10 = alloca i32, align 4
  store ptr %0, ptr %3, align 8
  store ptr %1, ptr %4, align 8
  %11 = load ptr, ptr %3, align 8
  %12 = load ptr, ptr %4, align 8
  store ptr %12, ptr %5, align 8
  %13 = load ptr, ptr %5, align 8
  %14 = getelementptr inbounds %"class.Ipopt::DenseVector", ptr %13, i32 0, i32 2
  %15 = load ptr, ptr %14, align 8
  store ptr %15, ptr %6, align 8
  %16 = call noundef i32 @_ZNK5Ipopt6Vector3DimEv(ptr noundef nonnull align 8 dereferenceable(205) %11)
  %17 = icmp eq i32 %16, 0
  br i1 %17, label %18, label %19

18:                                               ; preds = %2
  br label %173

19:                                               ; preds = %2
  %20 = getelementptr inbounds %"class.Ipopt::DenseVector", ptr %11, i32 0, i32 5
  %21 = load i8, ptr %20, align 1
  %22 = trunc i8 %21 to i1
  br i1 %22, label %23, label %65

23:                                               ; preds = %19
  %24 = getelementptr inbounds %"class.Ipopt::DenseVector", ptr %11, i32 0, i32 6
  %25 = load double, ptr %24, align 8
  %26 = fcmp oeq double %25, 0.000000e+00
  br i1 %26, label %27, label %28

27:                                               ; preds = %23
  br label %173

28:                                               ; preds = %23
  %29 = load ptr, ptr %5, align 8
  %30 = getelementptr inbounds %"class.Ipopt::DenseVector", ptr %29, i32 0, i32 5
  %31 = load i8, ptr %30, align 1
  %32 = trunc i8 %31 to i1
  br i1 %32, label %33, label %40

33:                                               ; preds = %28
  %34 = load ptr, ptr %5, align 8
  %35 = getelementptr inbounds %"class.Ipopt::DenseVector", ptr %34, i32 0, i32 6
  %36 = load double, ptr %35, align 8
  %37 = getelementptr inbounds %"class.Ipopt::DenseVector", ptr %11, i32 0, i32 6
  %38 = load double, ptr %37, align 8
  %39 = fmul double %38, %36
  store double %39, ptr %37, align 8
  br label %64

40:                                               ; preds = %28
  %41 = getelementptr inbounds %"class.Ipopt::DenseVector", ptr %11, i32 0, i32 5
  store i8 0, ptr %41, align 1
  %42 = call noundef ptr @_ZN5Ipopt11DenseVector16values_allocatedEv(ptr noundef nonnull align 8 dereferenceable(248) %11)
  store ptr %42, ptr %7, align 8
  store i32 0, ptr %8, align 4
  br label %43

43:                                               ; preds = %60, %40
  %44 = load i32, ptr %8, align 4
  %45 = call noundef i32 @_ZNK5Ipopt6Vector3DimEv(ptr noundef nonnull align 8 dereferenceable(205) %11)
  %46 = icmp slt i32 %44, %45
  br i1 %46, label %47, label %63

47:                                               ; preds = %43
  %48 = getelementptr inbounds %"class.Ipopt::DenseVector", ptr %11, i32 0, i32 6
  %49 = load double, ptr %48, align 8
  %50 = load ptr, ptr %6, align 8
  %51 = load i32, ptr %8, align 4
  %52 = sext i32 %51 to i64
  %53 = getelementptr inbounds double, ptr %50, i64 %52
  %54 = load double, ptr %53, align 8
  %55 = fmul double %49, %54
  %56 = load ptr, ptr %7, align 8
  %57 = load i32, ptr %8, align 4
  %58 = sext i32 %57 to i64
  %59 = getelementptr inbounds double, ptr %56, i64 %58
  store double %55, ptr %59, align 8
  br label %60

60:                                               ; preds = %47
  %61 = load i32, ptr %8, align 4
  %62 = add nsw i32 %61, 1
  store i32 %62, ptr %8, align 4
  br label %43, !llvm.loop !12

63:                                               ; preds = %43
  br label %64

64:                                               ; preds = %63, %33
  br label %173

65:                                               ; preds = %19
  %66 = load ptr, ptr %5, align 8
  %67 = getelementptr inbounds %"class.Ipopt::DenseVector", ptr %66, i32 0, i32 5
  %68 = load i8, ptr %67, align 1
  %69 = trunc i8 %68 to i1
  br i1 %69, label %70, label %122

70:                                               ; preds = %65
  %71 = load ptr, ptr %5, align 8
  %72 = getelementptr inbounds %"class.Ipopt::DenseVector", ptr %71, i32 0, i32 6
  %73 = load double, ptr %72, align 8
  %74 = fcmp une double %73, 1.000000e+00
  br i1 %74, label %75, label %121

75:                                               ; preds = %70
  store i32 0, ptr %9, align 4
  br label %76

76:                                               ; preds = %117, %75
  %77 = load i32, ptr %9, align 4
  %78 = call noundef i32 @_ZNK5Ipopt6Vector3DimEv(ptr noundef nonnull align 8 dereferenceable(205) %11)
  %79 = icmp slt i32 %77, %78
  br i1 %79, label %80, label %120

80:                                               ; preds = %76
  %81 = getelementptr inbounds %"class.Ipopt::DenseVector", ptr %11, i32 0, i32 2
  %82 = load ptr, ptr %81, align 8
  %83 = load i32, ptr %9, align 4
  %84 = sext i32 %83 to i64
  %85 = getelementptr inbounds double, ptr %82, i64 %84
  %86 = load double, ptr %85, align 8
  %87 = fcmp ogt double %86, 0.000000e+00
  br i1 %87, label %88, label %97

88:                                               ; preds = %80
  %89 = load ptr, ptr %5, align 8
  %90 = getelementptr inbounds %"class.Ipopt::DenseVector", ptr %89, i32 0, i32 6
  %91 = load double, ptr %90, align 8
  %92 = getelementptr inbounds %"class.Ipopt::DenseVector", ptr %11, i32 0, i32 2
  %93 = load ptr, ptr %92, align 8
  %94 = load i32, ptr %9, align 4
  %95 = sext i32 %94 to i64
  %96 = getelementptr inbounds double, ptr %93, i64 %95
  store double %91, ptr %96, align 8
  br label %116

97:                                               ; preds = %80
  %98 = getelementptr inbounds %"class.Ipopt::DenseVector", ptr %11, i32 0, i32 2
  %99 = load ptr, ptr %98, align 8
  %100 = load i32, ptr %9, align 4
  %101 = sext i32 %100 to i64
  %102 = getelementptr inbounds double, ptr %99, i64 %101
  %103 = load double, ptr %102, align 8
  %104 = fcmp olt double %103, 0.000000e+00
  br i1 %104, label %105, label %115

105:                                              ; preds = %97
  %106 = load ptr, ptr %5, align 8
  %107 = getelementptr inbounds %"class.Ipopt::DenseVector", ptr %106, i32 0, i32 6
  %108 = load double, ptr %107, align 8
  %109 = fneg double %108
  %110 = getelementptr inbounds %"class.Ipopt::DenseVector", ptr %11, i32 0, i32 2
  %111 = load ptr, ptr %110, align 8
  %112 = load i32, ptr %9, align 4
  %113 = sext i32 %112 to i64
  %114 = getelementptr inbounds double, ptr %111, i64 %113
  store double %109, ptr %114, align 8
  br label %115

115:                                              ; preds = %105, %97
  br label %116

116:                                              ; preds = %115, %88
  br label %117

117:                                              ; preds = %116
  %118 = load i32, ptr %9, align 4
  %119 = add nsw i32 %118, 1
  store i32 %119, ptr %9, align 4
  br label %76, !llvm.loop !13

120:                                              ; preds = %76
  br label %121

121:                                              ; preds = %120, %70
  br label %172

122:                                              ; preds = %65
  store i32 0, ptr %10, align 4
  br label %123

123:                                              ; preds = %168, %122
  %124 = load i32, ptr %10, align 4
  %125 = call noundef i32 @_ZNK5Ipopt6Vector3DimEv(ptr noundef nonnull align 8 dereferenceable(205) %11)
  %126 = icmp slt i32 %124, %125
  br i1 %126, label %127, label %171

127:                                              ; preds = %123
  %128 = getelementptr inbounds %"class.Ipopt::DenseVector", ptr %11, i32 0, i32 2
  %129 = load ptr, ptr %128, align 8
  %130 = load i32, ptr %10, align 4
  %131 = sext i32 %130 to i64
  %132 = getelementptr inbounds double, ptr %129, i64 %131
  %133 = load double, ptr %132, align 8
  %134 = fcmp ogt double %133, 0.000000e+00
  br i1 %134, label %135, label %146

135:                                              ; preds = %127
  %136 = load ptr, ptr %6, align 8
  %137 = load i32, ptr %10, align 4
  %138 = sext i32 %137 to i64
  %139 = getelementptr inbounds double, ptr %136, i64 %138
  %140 = load double, ptr %139, align 8
  %141 = getelementptr inbounds %"class.Ipopt::DenseVector", ptr %11, i32 0, i32 2
  %142 = load ptr, ptr %141, align 8
  %143 = load i32, ptr %10, align 4
  %144 = sext i32 %143 to i64
  %145 = getelementptr inbounds double, ptr %142, i64 %144
  store double %140, ptr %145, align 8
  br label %167

146:                                              ; preds = %127
  %147 = getelementptr inbounds %"class.Ipopt::DenseVector", ptr %11, i32 0, i32 2
  %148 = load ptr, ptr %147, align 8
  %149 = load i32, ptr %10, align 4
  %150 = sext i32 %149 to i64
  %151 = getelementptr inbounds double, ptr %148, i64 %150
  %152 = load double, ptr %151, align 8
  %153 = fcmp olt double %152, 0.000000e+00
  br i1 %153, label %154, label %166

154:                                              ; preds = %146
  %155 = load ptr, ptr %6, align 8
  %156 = load i32, ptr %10, align 4
  %157 = sext i32 %156 to i64
  %158 = getelementptr inbounds double, ptr %155, i64 %157
  %159 = load double, ptr %158, align 8
  %160 = fneg double %159
  %161 = getelementptr inbounds %"class.Ipopt::DenseVector", ptr %11, i32 0, i32 2
  %162 = load ptr, ptr %161, align 8
  %163 = load i32, ptr %10, align 4
  %164 = sext i32 %163 to i64
  %165 = getelementptr inbounds double, ptr %162, i64 %164
  store double %160, ptr %165, align 8
  br label %166

166:                                              ; preds = %154, %146
  br label %167

167:                                              ; preds = %166, %135
  br label %168

168:                                              ; preds = %167
  %169 = load i32, ptr %10, align 4
  %170 = add nsw i32 %169, 1
  store i32 %170, ptr %10, align 4
  br label %123, !llvm.loop !14

171:                                              ; preds = %123
  br label %172

172:                                              ; preds = %171, %121
  br label %173

173:                                              ; preds = %172, %64, %27, %18
  ret void
}