; Function Attrs: mustprogress uwtable
define void @_ZN5Ipopt11DenseVector21ElementWiseSelectImplERKNS_6VectorE(ptr nocapture noundef nonnull align 8 dereferenceable(248) %0, ptr nocapture noundef nonnull readonly align 8 dereferenceable(205) %1) unnamed_addr #0 align 2 {
  %3 = getelementptr inbounds i8, ptr %1, i64 216
  %4 = load ptr, ptr %3, align 8
  %5 = getelementptr inbounds i8, ptr %0, i64 56
  %6 = load ptr, ptr %5, align 8
  %7 = getelementptr inbounds i8, ptr %6, i64 12
  %8 = load i32, ptr %7, align 4
  %9 = icmp eq i32 %8, 0
  br i1 %9, label %.loopexit, label %10

10:                                               ; preds = %2
  %11 = getelementptr inbounds i8, ptr %0, i64 233
  %12 = load i8, ptr %11, align 1
  %13 = and i8 %12, 1
  %.not = icmp eq i8 %13, 0
  br i1 %.not, label %53, label %14

14:                                               ; preds = %10
  %15 = getelementptr inbounds i8, ptr %0, i64 240
  %16 = load double, ptr %15, align 8
  %17 = fcmp oeq double %16, 0.000000e+00
  br i1 %17, label %.loopexit, label %18

18:                                               ; preds = %14
  %19 = getelementptr inbounds i8, ptr %1, i64 233
  %20 = load i8, ptr %19, align 1
  %21 = and i8 %20, 1
  %.not36 = icmp eq i8 %21, 0
  br i1 %.not36, label %26, label %22

22:                                               ; preds = %18
  %23 = getelementptr inbounds i8, ptr %1, i64 240
  %24 = load double, ptr %23, align 8
  %25 = fmul double %16, %24
  store double %25, ptr %15, align 8
  br label %.loopexit

26:                                               ; preds = %18
  store i8 0, ptr %11, align 1
  %27 = getelementptr inbounds i8, ptr %0, i64 216
  %28 = load ptr, ptr %27, align 8
  %29 = icmp eq ptr %28, null
  br i1 %29, label %30, label %_ZN5Ipopt11DenseVector16values_allocatedEv.exit

30:                                               ; preds = %26
  %31 = getelementptr inbounds i8, ptr %0, i64 208
  %32 = load ptr, ptr %31, align 8
  %33 = getelementptr inbounds i8, ptr %32, i64 12
  %34 = load i32, ptr %33, align 4
  %35 = icmp sgt i32 %34, 0
  br i1 %35, label %36, label %_ZNK5Ipopt16DenseVectorSpace23AllocateInternalStorageEv.exit.i

36:                                               ; preds = %30
  %37 = zext nneg i32 %34 to i64
  %38 = shl nuw nsw i64 %37, 3
  %39 = tail call noalias noundef nonnull ptr @_Znam(i64 noundef %38) #18
  br label %_ZNK5Ipopt16DenseVectorSpace23AllocateInternalStorageEv.exit.i

_ZNK5Ipopt16DenseVectorSpace23AllocateInternalStorageEv.exit.i: ; preds = %36, %30
  %.0.i.i = phi ptr [ %39, %36 ], [ null, %30 ]
  store ptr %.0.i.i, ptr %27, align 8
  br label %_ZN5Ipopt11DenseVector16values_allocatedEv.exit

_ZN5Ipopt11DenseVector16values_allocatedEv.exit:  ; preds = %26, %_ZNK5Ipopt16DenseVectorSpace23AllocateInternalStorageEv.exit.i
  %40 = phi ptr [ %.0.i.i, %_ZNK5Ipopt16DenseVectorSpace23AllocateInternalStorageEv.exit.i ], [ %28, %26 ]
  %41 = load i32, ptr %7, align 4
  %42 = icmp sgt i32 %41, 0
  br i1 %42, label %.lr.ph, label %.loopexit

.lr.ph:                                           ; preds = %_ZN5Ipopt11DenseVector16values_allocatedEv.exit, %.lr.ph
  %indvars.iv = phi i64 [ %indvars.iv.next, %.lr.ph ], [ 0, %_ZN5Ipopt11DenseVector16values_allocatedEv.exit ]
  %43 = load double, ptr %15, align 8
  %44 = getelementptr inbounds double, ptr %4, i64 %indvars.iv
  %45 = load double, ptr %44, align 8
  %46 = fmul double %43, %45
  %47 = getelementptr inbounds double, ptr %40, i64 %indvars.iv
  store double %46, ptr %47, align 8
  %indvars.iv.next = add nuw nsw i64 %indvars.iv, 1
  %48 = load ptr, ptr %5, align 8
  %49 = getelementptr inbounds i8, ptr %48, i64 12
  %50 = load i32, ptr %49, align 4
  %51 = sext i32 %50 to i64
  %52 = icmp slt i64 %indvars.iv.next, %51
  br i1 %52, label %.lr.ph, label %.loopexit, !llvm.loop !14

53:                                               ; preds = %10
  %54 = getelementptr inbounds i8, ptr %1, i64 233
  %55 = load i8, ptr %54, align 1
  %56 = and i8 %55, 1
  %.not35 = icmp eq i8 %56, 0
  br i1 %.not35, label %.preheader, label %59

.preheader:                                       ; preds = %53
  %57 = icmp sgt i32 %8, 0
  br i1 %57, label %.lr.ph44, label %.loopexit

.lr.ph44:                                         ; preds = %.preheader
  %58 = getelementptr inbounds i8, ptr %0, i64 216
  br label %83

59:                                               ; preds = %53
  %60 = getelementptr inbounds i8, ptr %1, i64 240
  %61 = load double, ptr %60, align 8
  %62 = fcmp une double %61, 1.000000e+00
  %63 = icmp sgt i32 %8, 0
  %or.cond = and i1 %62, %63
  br i1 %or.cond, label %.lr.ph42, label %.loopexit

.lr.ph42:                                         ; preds = %59
  %64 = getelementptr inbounds i8, ptr %0, i64 216
  br label %65

65:                                               ; preds = %.lr.ph42, %77
  %indvars.iv48 = phi i64 [ 0, %.lr.ph42 ], [ %indvars.iv.next49, %77 ]
  %66 = load ptr, ptr %64, align 8
  %67 = getelementptr inbounds double, ptr %66, i64 %indvars.iv48
  %68 = load double, ptr %67, align 8
  %69 = fcmp ogt double %68, 0.000000e+00
  br i1 %69, label %70, label %72

70:                                               ; preds = %65
  %71 = load double, ptr %60, align 8
  br label %.sink.split

72:                                               ; preds = %65
  %73 = fcmp olt double %68, 0.000000e+00
  br i1 %73, label %74, label %77

74:                                               ; preds = %72
  %75 = load double, ptr %60, align 8
  %76 = fneg double %75
  br label %.sink.split

.sink.split:                                      ; preds = %74, %70
  %.sink = phi double [ %71, %70 ], [ %76, %74 ]
  store double %.sink, ptr %67, align 8
  br label %77

77:                                               ; preds = %.sink.split, %72
  %indvars.iv.next49 = add nuw nsw i64 %indvars.iv48, 1
  %78 = load ptr, ptr %5, align 8
  %79 = getelementptr inbounds i8, ptr %78, i64 12
  %80 = load i32, ptr %79, align 4
  %81 = sext i32 %80 to i64
  %82 = icmp slt i64 %indvars.iv.next49, %81
  br i1 %82, label %65, label %.loopexit, !llvm.loop !15

83:                                               ; preds = %.lr.ph44, %97
  %indvars.iv51 = phi i64 [ 0, %.lr.ph44 ], [ %indvars.iv.next52, %97 ]
  %84 = load ptr, ptr %58, align 8
  %85 = getelementptr inbounds double, ptr %84, i64 %indvars.iv51
  %86 = load double, ptr %85, align 8
  %87 = fcmp ogt double %86, 0.000000e+00
  br i1 %87, label %88, label %91

88:                                               ; preds = %83
  %89 = getelementptr inbounds double, ptr %4, i64 %indvars.iv51
  %90 = load double, ptr %89, align 8
  br label %.sink.split56

91:                                               ; preds = %83
  %92 = fcmp olt double %86, 0.000000e+00
  br i1 %92, label %93, label %97

93:                                               ; preds = %91
  %94 = getelementptr inbounds double, ptr %4, i64 %indvars.iv51
  %95 = load double, ptr %94, align 8
  %96 = fneg double %95
  br label %.sink.split56

.sink.split56:                                    ; preds = %93, %88
  %.sink57 = phi double [ %90, %88 ], [ %96, %93 ]
  store double %.sink57, ptr %85, align 8
  br label %97

97:                                               ; preds = %.sink.split56, %91
  %indvars.iv.next52 = add nuw nsw i64 %indvars.iv51, 1
  %98 = load ptr, ptr %5, align 8
  %99 = getelementptr inbounds i8, ptr %98, i64 12
  %100 = load i32, ptr %99, align 4
  %101 = sext i32 %100 to i64
  %102 = icmp slt i64 %indvars.iv.next52, %101
  br i1 %102, label %83, label %.loopexit, !llvm.loop !16

.loopexit:                                        ; preds = %.lr.ph, %77, %97, %_ZN5Ipopt11DenseVector16values_allocatedEv.exit, %.preheader, %59, %22, %14, %2
  ret void
}